target datalayout = "e-m:e-p270:32:32-p271:32:32-p272:64:64-i64:64-i128:128-f80:128-n8:16:32:64-S128"
target triple = "x86_64-pc-linux-gnu"

%"class.cv::bioinspired::BasicRetinaFilter" = type { %"class.cv::bioinspired::TemplateBuffer", %"class.std::valarray", i32, i32, %"class.std::valarray", %"class.std::valarray", %"class.std::valarray", float, float, float, float, float, float, float, float }
%"class.cv::bioinspired::TemplateBuffer" = type { ptr, %"class.std::valarray", i64, i64, i64, i64, i64 }
%"class.std::valarray" = type { i64, ptr }

; Function Attrs: inlinehint mustprogress nounwind uwtable
define linkonce_odr hidden noundef nonnull align 4 dereferenceable(4) ptr @_ZNSt8valarrayIfEixEm(ptr noundef nonnull align 8 dereferenceable(16) %0, i64 noundef %1) #6 comdat align 2 {
  %3 = alloca ptr, align 8
  %4 = alloca i64, align 8
  store ptr %0, ptr %3, align 8, !tbaa !34
  store i64 %1, ptr %4, align 8, !tbaa !25
  %5 = load ptr, ptr %3, align 8
  %6 = getelementptr inbounds nuw %"class.std::valarray", ptr %5, i32 0, i32 1
  %7 = load ptr, ptr %6, align 8, !tbaa !37
  %8 = load i64, ptr %4, align 8, !tbaa !25
  %9 = getelementptr inbounds nuw float, ptr %7, i64 %8
  ret ptr %9
}

; Function Attrs: inlinehint mustprogress nounwind uwtable
define linkonce_odr hidden noundef i32 @_ZN2cv11bioinspired14TemplateBufferIfE12getNBcolumnsEv(ptr noundef nonnull align 8 dereferenceable(64) %0) #6 comdat align 2 {
  %2 = alloca ptr, align 8
  store ptr %0, ptr %2, align 8, !tbaa !23
  %3 = load ptr, ptr %2, align 8
  %4 = getelementptr inbounds nuw %"class.cv::bioinspired::TemplateBuffer", ptr %3, i32 0, i32 3
  %5 = load i64, ptr %4, align 8, !tbaa !30
  %6 = trunc i64 %5 to i32
  ret i32 %6
}

; Function Attrs: mustprogress uwtable
define hidden void @_ZN2cv11bioinspired17BasicRetinaFilter33_horizontalCausalFilter_IrregularEPfjj(ptr noundef nonnull align 8 dereferenceable(168) %0, ptr noundef %1, i32 noundef %2, i32 noundef %3) #4 align 2 {
  %5 = alloca ptr, align 8
  %6 = alloca ptr, align 8
  %7 = alloca i32, align 4
  %8 = alloca i32, align 4
  %9 = alloca ptr, align 8
  %10 = alloca ptr, align 8
  %11 = alloca i32, align 4
  %12 = alloca i32, align 4
  %13 = alloca float, align 4
  %14 = alloca i32, align 4
  store ptr %0, ptr %5, align 8, !tbaa !3
  store ptr %1, ptr %6, align 8, !tbaa !49
  store i32 %2, ptr %7, align 4, !tbaa !8
  store i32 %3, ptr %8, align 4, !tbaa !8
  %15 = load ptr, ptr %5, align 8
  call void @llvm.lifetime.start.p0(i64 8, ptr %9) #3
  %16 = load ptr, ptr %6, align 8, !tbaa !49
  %17 = load i32, ptr %7, align 4, !tbaa !8
  %18 = getelementptr inbounds nuw %"class.cv::bioinspired::BasicRetinaFilter", ptr %15, i32 0, i32 0
  %19 = call noundef i32 @_ZN2cv11bioinspired14TemplateBufferIfE12getNBcolumnsEv(ptr noundef nonnull align 8 dereferenceable(64) %18)
  %20 = mul i32 %17, %19
  %21 = zext i32 %20 to i64
  %22 = getelementptr inbounds nuw float, ptr %16, i64 %21
  store ptr %22, ptr %9, align 8, !tbaa !49
  call void @llvm.lifetime.start.p0(i64 8, ptr %10) #3
  %23 = getelementptr inbounds nuw %"class.cv::bioinspired::BasicRetinaFilter", ptr %15, i32 0, i32 5
  %24 = call noundef nonnull align 4 dereferenceable(4) ptr @_ZNSt8valarrayIfEixEm(ptr noundef nonnull align 8 dereferenceable(16) %23, i64 noundef 0) #3
  %25 = load i32, ptr %7, align 4, !tbaa !8
  %26 = getelementptr inbounds nuw %"class.cv::bioinspired::BasicRetinaFilter", ptr %15, i32 0, i32 0
  %27 = call noundef i32 @_ZN2cv11bioinspired14TemplateBufferIfE12getNBcolumnsEv(ptr noundef nonnull align 8 dereferenceable(64) %26)
  %28 = mul i32 %25, %27
  %29 = zext i32 %28 to i64
  %30 = getelementptr inbounds nuw float, ptr %24, i64 %29
  store ptr %30, ptr %10, align 8, !tbaa !49
  call void @llvm.lifetime.start.p0(i64 4, ptr %11) #3
  %31 = load i32, ptr %7, align 4, !tbaa !8
  store i32 %31, ptr %11, align 4, !tbaa !8
  br label %32

32:                                               ; preds = %59, %4
  %33 = load i32, ptr %11, align 4, !tbaa !8
  %34 = load i32, ptr %8, align 4, !tbaa !8
  %35 = icmp ult i32 %33, %34
  br i1 %35, label %37, label %36

36:                                               ; preds = %32
  store i32 2, ptr %12, align 4
  call void @llvm.lifetime.end.p0(i64 4, ptr %11) #3
  br label %62

37:                                               ; preds = %32
  call void @llvm.lifetime.start.p0(i64 4, ptr %13) #3
  store float 0.000000e+00, ptr %13, align 4, !tbaa !26
  call void @llvm.lifetime.start.p0(i64 4, ptr %14) #3
  store i32 0, ptr %14, align 4, !tbaa !8
  br label %38

38:                                               ; preds = %55, %37
  %39 = load i32, ptr %14, align 4, !tbaa !8
  %40 = getelementptr inbounds nuw %"class.cv::bioinspired::BasicRetinaFilter", ptr %15, i32 0, i32 0
  %41 = call noundef i32 @_ZN2cv11bioinspired14TemplateBufferIfE12getNBcolumnsEv(ptr noundef nonnull align 8 dereferenceable(64) %40)
  %42 = icmp ult i32 %39, %41
  br i1 %42, label %44, label %43

43:                                               ; preds = %38
  store i32 5, ptr %12, align 4
  call void @llvm.lifetime.end.p0(i64 4, ptr %14) #3
  br label %58

44:                                               ; preds = %38
  %45 = load ptr, ptr %9, align 8, !tbaa !49
  %46 = load float, ptr %45, align 4, !tbaa !26
  %47 = load ptr, ptr %10, align 8, !tbaa !49
  %48 = getelementptr inbounds nuw float, ptr %47, i32 1
  store ptr %48, ptr %10, align 8, !tbaa !49
  %49 = load float, ptr %47, align 4, !tbaa !26
  %50 = load float, ptr %13, align 4, !tbaa !26
  %51 = call float @llvm.fmuladd.f32(float %49, float %50, float %46)
  store float %51, ptr %13, align 4, !tbaa !26
  %52 = load float, ptr %13, align 4, !tbaa !26
  %53 = load ptr, ptr %9, align 8, !tbaa !49
  %54 = getelementptr inbounds nuw float, ptr %53, i32 1
  store ptr %54, ptr %9, align 8, !tbaa !49
  store float %52, ptr %53, align 4, !tbaa !26
  br label %55

55:                                               ; preds = %44
  %56 = load i32, ptr %14, align 4, !tbaa !8
  %57 = add i32 %56, 1
  store i32 %57, ptr %14, align 4, !tbaa !8
  br label %38, !llvm.loop !123

58:                                               ; preds = %43
  call void @llvm.lifetime.end.p0(i64 4, ptr %13) #3
  br label %59

59:                                               ; preds = %58
  %60 = load i32, ptr %11, align 4, !tbaa !8
  %61 = add i32 %60, 1
  store i32 %61, ptr %11, align 4, !tbaa !8
  br label %32, !llvm.loop !124

62:                                               ; preds = %36
  call void @llvm.lifetime.end.p0(i64 8, ptr %10) #3
  call void @llvm.lifetime.end.p0(i64 8, ptr %9) #3
  ret void
}