; Function Attrs: mustprogress nofree norecurse nosync nounwind memory(read, argmem: readwrite, inaccessiblemem: none) uwtable
define hidden void @_ZN2cv11bioinspired17BasicRetinaFilter33_horizontalCausalFilter_IrregularEPfjj(ptr noundef nonnull readonly align 8 captures(none) dereferenceable(168) %0, ptr noundef captures(none) %1, i32 noundef %2, i32 noundef %3) local_unnamed_addr #10 align 2 {
  %5 = getelementptr inbounds nuw i8, ptr %0, i64 32
  %6 = load i64, ptr %5, align 8, !tbaa !17
  %7 = trunc i64 %6 to i32
  %8 = icmp uge i32 %2, %3
  %.not = icmp eq i32 %7, 0
  %or.cond = select i1 %8, i1 true, i1 %.not
  br i1 %or.cond, label %._crit_edge27, label %.preheader.us.preheader

.preheader.us.preheader:                          ; preds = %4
  %9 = mul i32 %2, %7
  %10 = zext i32 %9 to i64
  %11 = getelementptr inbounds nuw float, ptr %1, i64 %10
  %12 = getelementptr inbounds nuw i8, ptr %0, i64 112
  %13 = load ptr, ptr %12, align 8, !tbaa !10
  %14 = getelementptr inbounds nuw float, ptr %13, i64 %10
  br label %.preheader.us

.preheader.us:                                    ; preds = %.preheader.us.preheader, %._crit_edge.us
  %.01526.us = phi i32 [ %22, %._crit_edge.us ], [ %2, %.preheader.us.preheader ]
  %.01625.us = phi ptr [ %17, %._crit_edge.us ], [ %14, %.preheader.us.preheader ]
  %.01724.us = phi ptr [ %20, %._crit_edge.us ], [ %11, %.preheader.us.preheader ]
  br label %15

15:                                               ; preds = %.preheader.us, %15
  %.022.us = phi i32 [ 0, %.preheader.us ], [ %21, %15 ]
  %.01421.us = phi float [ 0.000000e+00, %.preheader.us ], [ %19, %15 ]
  %.120.us = phi ptr [ %.01625.us, %.preheader.us ], [ %17, %15 ]
  %.11819.us = phi ptr [ %.01724.us, %.preheader.us ], [ %20, %15 ]
  %16 = load float, ptr %.11819.us, align 4, !tbaa !11
  %17 = getelementptr inbounds nuw i8, ptr %.120.us, i64 4
  %18 = load float, ptr %.120.us, align 4, !tbaa !11
  %19 = tail call float @llvm.fmuladd.f32(float %18, float %.01421.us, float %16)
  %20 = getelementptr inbounds nuw i8, ptr %.11819.us, i64 4
  store float %19, ptr %.11819.us, align 4, !tbaa !11
  %21 = add nuw i32 %.022.us, 1
  %exitcond.not = icmp eq i32 %21, %7
  br i1 %exitcond.not, label %._crit_edge.us, label %15, !llvm.loop !127

._crit_edge.us:                                   ; preds = %15
  %22 = add nuw i32 %.01526.us, 1
  %exitcond30.not = icmp eq i32 %22, %3
  br i1 %exitcond30.not, label %._crit_edge27, label %.preheader.us, !llvm.loop !128

._crit_edge27:                                    ; preds = %._crit_edge.us, %4
  ret void
}